; Function Attrs: nounwind uwtable
define range(i32 -48, 1) i32 @ARKodeSetJacTimesRhsFn(ptr noundef %0, ptr noundef %1) local_unnamed_addr #0 {
  %3 = icmp eq ptr %0, null
  br i1 %3, label %4, label %5

4:                                                ; preds = %2
  tail call void (ptr, i32, i32, ptr, ptr, ptr, ...) @arkProcessError(ptr noundef null, i32 noundef -21, i32 noundef 961, ptr noundef nonnull @__func__.ARKodeSetJacTimesRhsFn, ptr noundef nonnull @.str, ptr noundef nonnull @.str.1) #13
  br label %28

5:                                                ; preds = %2
  %6 = getelementptr inbounds nuw i8, ptr %0, i64 296
  %7 = load i32, ptr %6, align 8, !tbaa !3
  %.not = icmp eq i32 %7, 0
  br i1 %.not, label %8, label %9

8:                                                ; preds = %5
  tail call void (ptr, i32, i32, ptr, ptr, ptr, ...) @arkProcessError(ptr noundef nonnull %0, i32 noundef -48, i32 noundef 970, ptr noundef nonnull @__func__.ARKodeSetJacTimesRhsFn, ptr noundef nonnull @.str, ptr noundef nonnull @.str.2) #13
  br label %28

9:                                                ; preds = %5
  %10 = getelementptr inbounds nuw i8, ptr %0, i64 320
  %11 = load ptr, ptr %10, align 8, !tbaa !33
  %12 = tail call ptr %11(ptr noundef nonnull %0) #13
  %13 = icmp eq ptr %12, null
  br i1 %13, label %arkLs_AccessLMem.exit, label %14

arkLs_AccessLMem.exit:                            ; preds = %9
  tail call void (ptr, i32, i32, ptr, ptr, ptr, ...) @arkProcessError(ptr noundef nonnull %0, i32 noundef -2, i32 noundef 4072, ptr noundef nonnull @__func__.ARKodeSetJacTimesRhsFn, ptr noundef nonnull @.str, ptr noundef nonnull @.str.64) #13
  br label %28

14:                                               ; preds = %9
  %15 = getelementptr inbounds nuw i8, ptr %12, i64 240
  %16 = load i32, ptr %15, align 8, !tbaa !45
  %.not17 = icmp eq i32 %16, 0
  br i1 %.not17, label %17, label %18

17:                                               ; preds = %14
  tail call void (ptr, i32, i32, ptr, ptr, ptr, ...) @arkProcessError(ptr noundef nonnull %0, i32 noundef -3, i32 noundef 982, ptr noundef nonnull @__func__.ARKodeSetJacTimesRhsFn, ptr noundef nonnull @.str, ptr noundef nonnull @.str.22) #13
  br label %28

18:                                               ; preds = %14
  %.not18 = icmp eq ptr %1, null
  br i1 %.not18, label %21, label %19

19:                                               ; preds = %18
  %20 = getelementptr inbounds nuw i8, ptr %12, i64 264
  store ptr %1, ptr %20, align 8, !tbaa !49
  br label %28

21:                                               ; preds = %18
  %22 = getelementptr inbounds nuw i8, ptr %0, i64 328
  %23 = load ptr, ptr %22, align 8, !tbaa !34
  %24 = tail call ptr %23(ptr noundef nonnull %0) #13
  %25 = getelementptr inbounds nuw i8, ptr %12, i64 264
  store ptr %24, ptr %25, align 8, !tbaa !49
  %26 = icmp eq ptr %24, null
  br i1 %26, label %27, label %28

27:                                               ; preds = %21
  tail call void (ptr, i32, i32, ptr, ptr, ptr, ...) @arkProcessError(ptr noundef nonnull %0, i32 noundef -3, i32 noundef 995, ptr noundef nonnull @__func__.ARKodeSetJacTimesRhsFn, ptr noundef nonnull @.str, ptr noundef nonnull @.str.12) #13
  br label %28

28:                                               ; preds = %arkLs_AccessLMem.exit, %19, %21, %27, %17, %8, %4
  %.0 = phi i32 [ -21, %4 ], [ -3, %27 ], [ -3, %17 ], [ -48, %8 ], [ -2, %arkLs_AccessLMem.exit ], [ 0, %21 ], [ 0, %19 ]
  ret i32 %.0
}